

Microchip MPLAB XC8 Assembler V2.31 build 20201012212115 
                                                                                               Sun Nov 07 01:43:33 2021

Microchip MPLAB XC8 C Compiler v2.31 (Free license) build 20201012212115 Og1 
     1                           	processor	18F4620
     2                           	fnconf	rparam,??,?,0
     3                           	pagewidth 120
     4                           	opt	flic
     5                           	psect	idataCOMRAM,global,class=CODE,delta=1,noexec
     6                           	psect	cinit,global,reloc=2,class=CODE,delta=1
     7                           	psect	bssCOMRAM,global,class=COMRAM,space=1,delta=1,lowdata,noexec
     8                           	psect	dataCOMRAM,global,class=COMRAM,space=1,delta=1,lowdata,noexec
     9                           	psect	cstackCOMRAM,global,class=COMRAM,space=1,delta=1,lowdata,noexec
    10                           	psect	text0,global,reloc=2,class=CODE,delta=1
    11                           	psect	text1,global,reloc=2,class=CODE,delta=1
    12                           	psect	text2,global,reloc=2,class=CODE,delta=1
    13                           	psect	text3,global,reloc=2,class=CODE,delta=1
    14                           	psect	intcode,global,reloc=2,class=CODE,delta=1
    15                           	psect	intcode_body,global,reloc=2,class=CODE,delta=1
    16                           	psect	intsave_regs,global,class=BIGRAM,space=1,delta=1,noexec
    17                           	psect	rparam,global,class=COMRAM,space=1,delta=1,noexec
    18                           	psect	temp,global,ovrld,common,class=COMRAM,space=1,delta=1
    19                           	psect	idloc,global,abs,ovrld,class=IDLOC,space=5,delta=1,noexec
    20                           	psect	config,global,abs,ovrld,class=CONFIG,space=4,delta=1,noexec
    21  0000                     
    22                           ; Version 2.20
    23                           ; Generated 12/02/2020 GMT
    24                           ; 
    25                           ; Copyright © 2020, Microchip Technology Inc. and its subsidiaries ("Microchip")
    26                           ; All rights reserved.
    27                           ; 
    28                           ; This software is developed by Microchip Technology Inc. and its subsidiaries ("Microch
      +                          ip").
    29                           ; 
    30                           ; Redistribution and use in source and binary forms, with or without modification, are
    31                           ; permitted provided that the following conditions are met:
    32                           ; 
    33                           ;     1. Redistributions of source code must retain the above copyright notice, this lis
      +                          t of
    34                           ;        conditions and the following disclaimer.
    35                           ; 
    36                           ;     2. Redistributions in binary form must reproduce the above copyright notice, this 
      +                          list
    37                           ;        of conditions and the following disclaimer in the documentation and/or other
    38                           ;        materials provided with the distribution.
    39                           ; 
    40                           ;     3. Microchip's name may not be used to endorse or promote products derived from th
      +                          is
    41                           ;        software without specific prior written permission.
    42                           ; 
    43                           ; THIS SOFTWARE IS PROVIDED BY MICROCHIP "AS IS" AND ANY EXPRESS OR IMPLIED WARRANTIES,
    44                           ; INCLUDING, BUT NOT LIMITED TO, THE IMPLIED WARRANTIES OF MERCHANTABILITY AND FITNESS F
      +                          OR
    45                           ; PURPOSE ARE DISCLAIMED.  IN NO EVENT SHALL MICROCHIP BE LIABLE FOR ANY DIRECT, INDIREC
      +                          T,
    46                           ; INCIDENTAL, SPECIAL, EXEMPLARY, OR CONSEQUENTIAL DAMAGES (INCLUDING BUT NOT LIMITED TO
    47                           ; PROCUREMENT OF SUBSTITUTE GOODS OR SERVICES; LOSS OF USE, DATA OR PROFITS; OR BUSINESS
    48                           ; INTERRUPTION) HOWSOEVER CAUSED AND ON ANY THEORY OF LIABILITY, WHETHER IN CONTRACT, ST
      +                          RICT
    49                           ; LIABILITY, OR TORT (INCLUDING NEGLIGENCE OR OTHERWISE) ARISING IN ANY WAY OUT OF THE U
      +                          SE OF
    50                           ; THIS SOFTWARE, EVEN IF ADVISED OF THE POSSIBILITY OF SUCH DAMAGE.
    51                           ; 
    52                           ; 
    53                           ; Code-generator required, PIC18F4620 Definitions
    54                           ; 
    55                           ; SFR Addresses
    56  0000                     
    57                           	psect	idataCOMRAM
    58  000AC0                     __pidataCOMRAM:
    59                           	callstack 0
    60                           
    61                           ;initializer for _ccp_compare_val_final
    62  000AC0  0B18               	dw	2840
    63                           
    64                           ;initializer for _LAST_BUTTON_PRESSED
    65  000AC2  07                 	db	7
    66                           
    67                           ;initializer for _current_func_set
    68  000AC3  30                 	db	48
    69                           
    70                           ;initializer for _current_entry_mode
    71  000AC4  06                 	db	6
    72                           
    73                           ;initializer for _disp_16x2
    74  000AC5  01                 	db	1
    75                           
    76                           ;initializer for _current_disp_ctrl
    77  000AC6  08                 	db	8
    78  0000                     _CCPR2	set	4027
    79  0000                     _CCPR1	set	4030
    80  0000                     _PORTBbits	set	3969
    81  0000                     _INTCONbits	set	4082
    82  0000                     _PORTB	set	3969
    83  0000                     _TRISB	set	3987
    84  0000                     _ADCON1	set	4033
    85  0000                     _PIR1bits	set	3998
    86  0000                     _T3CON	set	4017
    87  0000                     _T1CON	set	4045
    88  0000                     _PORTC	set	3970
    89  0000                     _PORTD	set	3971
    90  0000                     _TRISC	set	3988
    91  0000                     _PORTDbits	set	3971
    92  0000                     _TRISD	set	3989
    93  0000                     _LATCbits	set	3979
    94  0000                     _PIE2bits	set	4000
    95  0000                     _CCP2CON	set	4026
    96  0000                     _PIE1bits	set	3997
    97  0000                     _CCP1CON	set	4029
    98                           
    99                           ; #config settings
   100                           
   101                           	psect	cinit
   102  000A60                     __pcinit:
   103                           	callstack 0
   104  000A60                     start_initialization:
   105                           	callstack 0
   106  000A60                     __initialization:
   107                           	callstack 0
   108                           
   109                           ; Initialize objects allocated to COMRAM (7 bytes)
   110                           ; load TBLPTR registers with __pidataCOMRAM
   111  000A60  0EC0               	movlw	low __pidataCOMRAM
   112  000A62  6EF6               	movwf	tblptrl,c
   113  000A64  0E0A               	movlw	high __pidataCOMRAM
   114  000A66  6EF7               	movwf	tblptrh,c
   115  000A68  0E00               	movlw	low (__pidataCOMRAM shr (0+16))
   116  000A6A  6EF8               	movwf	tblptru,c
   117  000A6C  EE00  F008         	lfsr	0,__pdataCOMRAM
   118  000A70  EE10 F007          	lfsr	1,7
   119  000A74                     copy_data0:
   120  000A74  0009               	tblrd		*+
   121  000A76  CFF5 FFEE          	movff	tablat,postinc0
   122  000A7A  50E5               	movf	postdec1,w,c
   123  000A7C  50E1               	movf	fsr1l,w,c
   124  000A7E  E1FA               	bnz	copy_data0
   125                           
   126                           ; Clear objects allocated to COMRAM (7 bytes)
   127  000A80  EE00  F001         	lfsr	0,__pbssCOMRAM
   128  000A84  0E07               	movlw	7
   129  000A86                     clear_0:
   130  000A86  6AEE               	clrf	postinc0,c
   131  000A88  06E8               	decf	wreg,f,c
   132  000A8A  E1FD               	bnz	clear_0
   133  000A8C                     end_of_initialization:
   134                           	callstack 0
   135  000A8C                     __end_of__initialization:
   136                           	callstack 0
   137  000A8C  9015               	bcf	int$flags,0,c	;clear compiler interrupt flag (level 1)
   138  000A8E  9215               	bcf	int$flags,1,c	;clear compiler interrupt flag (level 2)
   139  000A90  0E00               	movlw	low (__Lmediumconst shr (0+16))
   140  000A92  6EF8               	movwf	tblptru,c
   141  000A94  0100               	movlb	0
   142  000A96  EF09  F004         	goto	_main	;jump to C main() function
   143                           
   144                           	psect	bssCOMRAM
   145  000001                     __pbssCOMRAM:
   146                           	callstack 0
   147  000001                     _reset_comp_count_flag:
   148                           	callstack 0
   149  000001                     	ds	1
   150  000002                     _compare_count:
   151                           	callstack 0
   152  000002                     	ds	1
   153  000003                     _address_counter:
   154                           	callstack 0
   155  000003                     	ds	1
   156  000004                     	ds	1
   157  000005                     _init_complete:
   158                           	callstack 0
   159  000005                     	ds	1
   160  000006                     _DISP_BIT_MODE:
   161                           	callstack 0
   162  000006                     	ds	1
   163  000007                     _CURRENT_DISP:
   164                           	callstack 0
   165  000007                     	ds	1
   166                           
   167                           	psect	dataCOMRAM
   168  000008                     __pdataCOMRAM:
   169                           	callstack 0
   170  000008                     _ccp_compare_val_final:
   171                           	callstack 0
   172  000008                     	ds	2
   173  00000A                     _LAST_BUTTON_PRESSED:
   174                           	callstack 0
   175  00000A                     	ds	1
   176  00000B                     _current_func_set:
   177                           	callstack 0
   178  00000B                     	ds	1
   179  00000C                     _current_entry_mode:
   180                           	callstack 0
   181  00000C                     	ds	1
   182  00000D                     	ds	1
   183  00000E                     _current_disp_ctrl:
   184                           	callstack 0
   185  00000E                     	ds	1
   186                           
   187                           	psect	cstackCOMRAM
   188  00000F                     __pcstackCOMRAM:
   189                           	callstack 0
   190  00000F                     CCP1_Init_Default@comp_val:
   191                           	callstack 0
   192                           
   193                           ; 2 bytes @ 0x0
   194  00000F                     	ds	2
   195  000011                     Timer1_Init_Default@period_val:
   196                           	callstack 0
   197                           
   198                           ; 2 bytes @ 0x2
   199  000011                     	ds	2
   200  000013                     ??_main:
   201                           
   202                           ; 1 bytes @ 0x4
   203  000013                     	ds	2
   204                           
   205 ;;
   206 ;;Main: autosize = 0, tempsize = 2, incstack = 0, save=0
   207 ;;
   208 ;; *************** function _main *****************
   209 ;; Defined at:
   210 ;;		line 125 in file "inc/ece376_hw9_p1.c"
   211 ;; Parameters:    Size  Location     Type
   212 ;;		None
   213 ;; Auto vars:     Size  Location     Type
   214 ;;		None
   215 ;; Return value:  Size  Location     Type
   216 ;;                  1    wreg      void 
   217 ;; Registers used:
   218 ;;		wreg, status,2, status,0, cstack
   219 ;; Tracked objects:
   220 ;;		On entry : 0/0
   221 ;;		On exit  : 0/0
   222 ;;		Unchanged: 0/0
   223 ;; Data sizes:     COMRAM   BANK0   BANK1   BANK2   BANK3   BANK4   BANK5   BANK6   BANK7   BANK8   BANK9  BANK10  BANK1
      +1  BANK12  BANK13  BANK14  BANK15
   224 ;;      Params:         0       0       0       0       0       0       0       0       0       0       0       0       
      +0       0       0       0       0
   225 ;;      Locals:         0       0       0       0       0       0       0       0       0       0       0       0       
      +0       0       0       0       0
   226 ;;      Temps:          2       0       0       0       0       0       0       0       0       0       0       0       
      +0       0       0       0       0
   227 ;;      Totals:         2       0       0       0       0       0       0       0       0       0       0       0       
      +0       0       0       0       0
   228 ;;Total ram usage:        2 bytes
   229 ;; Hardware stack levels required when called:    3
   230 ;; This function calls:
   231 ;;		_Timer1_Enable
   232 ;;		_Timer1_Init_Default
   233 ;; This function is called by:
   234 ;;		Startup code after reset
   235 ;; This function uses a non-reentrant model
   236 ;;
   237                           
   238                           	psect	text0
   239  000812                     __ptext0:
   240                           	callstack 0
   241  000812                     _main:
   242                           	callstack 28
   243  000812                     
   244                           ;inc/ece376_hw9_p1.c: 128:  TRISC &= 0xFE;
   245  000812  9094               	bcf	148,0,c	;volatile
   246  000814                     
   247                           ;inc/ece376_hw9_p1.c: 130:  ADCON1 |= 0x0F;
   248  000814  0E0F               	movlw	15
   249  000816  12C1               	iorwf	193,f,c	;volatile
   250  000818                     
   251                           ;inc/ece376_hw9_p1.c: 131:  TRISB = 0xFF;
   252  000818  6893               	setf	147,c	;volatile
   253  00081A                     
   254                           ;inc/ece376_hw9_p1.c: 132:     PORTB = 0x00;
   255  00081A  0E00               	movlw	0
   256  00081C  6E81               	movwf	129,c	;volatile
   257  00081E                     
   258                           ;inc/ece376_hw9_p1.c: 140:  Timer1_Init_Default(0x7FFF);
   259  00081E  0E7F               	movlw	127
   260  000820  6E12               	movwf	(Timer1_Init_Default@period_val+1)^0,c
   261  000822  6811               	setf	Timer1_Init_Default@period_val^0,c
   262  000824  EC4D  F005         	call	_Timer1_Init_Default	;wreg free
   263  000828                     
   264                           ;inc/ece376_hw9_p1.c: 143:  Timer1_Enable();
   265  000828  EC64  F005         	call	_Timer1_Enable	;wreg free
   266  00082C                     
   267                           ;inc/ece376_hw9_p1.c: 144:  (PIE1bits.CCP1IE = 1u);
   268  00082C  849D               	bsf	157,2,c	;volatile
   269  00082E                     
   270                           ;inc/ece376_hw9_p1.c: 145:  (INTCONbits.PEIE = 1u);
   271  00082E  8CF2               	bsf	242,6,c	;volatile
   272  000830                     
   273                           ;inc/ece376_hw9_p1.c: 146:  (INTCONbits.GIE = 1);
   274  000830  8EF2               	bsf	242,7,c	;volatile
   275  000832                     l1468:
   276                           
   277                           ;inc/ece376_hw9_p1.c: 149:  reset_comp_count_flag = 0x00;
   278  000832  0E00               	movlw	0
   279  000834  6E01               	movwf	_reset_comp_count_flag^0,c	;volatile
   280  000836                     l1470:
   281                           
   282                           ;inc/ece376_hw9_p1.c: 152:   if(reset_comp_count_flag) {
   283  000836  5001               	movf	_reset_comp_count_flag^0,w,c	;volatile
   284  000838  B4D8               	btfsc	status,2,c
   285  00083A  EF21  F004         	goto	u401
   286  00083E  EF23  F004         	goto	u400
   287  000842                     u401:
   288  000842  EF1B  F004         	goto	l1470
   289  000846                     u400:
   290  000846                     
   291                           ;inc/ece376_hw9_p1.c: 157:    if(PORTBbits.RB0) {
   292  000846  A081               	btfss	129,0,c	;volatile
   293  000848  EF28  F004         	goto	u411
   294  00084C  EF2A  F004         	goto	u410
   295  000850                     u411:
   296  000850  EF2E  F004         	goto	l214
   297  000854                     u410:
   298  000854                     
   299                           ;inc/ece376_hw9_p1.c: 158:     LAST_BUTTON_PRESSED = BUTTON0;
   300  000854  0E00               	movlw	0
   301  000856  6E0A               	movwf	_LAST_BUTTON_PRESSED^0,c
   302                           
   303                           ;inc/ece376_hw9_p1.c: 159:    } else if(PORTBbits.RB1) {
   304  000858  EFC3  F004         	goto	l1524
   305  00085C                     l214:
   306  00085C  A281               	btfss	129,1,c	;volatile
   307  00085E  EF33  F004         	goto	u421
   308  000862  EF35  F004         	goto	u420
   309  000866                     u421:
   310  000866  EF39  F004         	goto	l216
   311  00086A                     u420:
   312  00086A                     
   313                           ;inc/ece376_hw9_p1.c: 160:     LAST_BUTTON_PRESSED = BUTTON1;
   314  00086A  0E01               	movlw	1
   315  00086C  6E0A               	movwf	_LAST_BUTTON_PRESSED^0,c
   316                           
   317                           ;inc/ece376_hw9_p1.c: 161:    } else if(PORTBbits.RB2) {
   318  00086E  EFC3  F004         	goto	l1524
   319  000872                     l216:
   320  000872  A481               	btfss	129,2,c	;volatile
   321  000874  EF3E  F004         	goto	u431
   322  000878  EF40  F004         	goto	u430
   323  00087C                     u431:
   324  00087C  EF44  F004         	goto	l218
   325  000880                     u430:
   326  000880                     
   327                           ;inc/ece376_hw9_p1.c: 162:     LAST_BUTTON_PRESSED = BUTTON2;
   328  000880  0E02               	movlw	2
   329  000882  6E0A               	movwf	_LAST_BUTTON_PRESSED^0,c
   330                           
   331                           ;inc/ece376_hw9_p1.c: 163:    } else if(PORTBbits.RB3) {
   332  000884  EFC3  F004         	goto	l1524
   333  000888                     l218:
   334  000888  A681               	btfss	129,3,c	;volatile
   335  00088A  EF49  F004         	goto	u441
   336  00088E  EF4B  F004         	goto	u440
   337  000892                     u441:
   338  000892  EF4F  F004         	goto	l220
   339  000896                     u440:
   340  000896                     
   341                           ;inc/ece376_hw9_p1.c: 164:     LAST_BUTTON_PRESSED = BUTTON3;
   342  000896  0E03               	movlw	3
   343  000898  6E0A               	movwf	_LAST_BUTTON_PRESSED^0,c
   344                           
   345                           ;inc/ece376_hw9_p1.c: 165:    } else if(PORTBbits.RB4) {
   346  00089A  EFC3  F004         	goto	l1524
   347  00089E                     l220:
   348  00089E  A881               	btfss	129,4,c	;volatile
   349  0008A0  EF54  F004         	goto	u451
   350  0008A4  EF56  F004         	goto	u450
   351  0008A8                     u451:
   352  0008A8  EF5A  F004         	goto	l222
   353  0008AC                     u450:
   354  0008AC                     
   355                           ;inc/ece376_hw9_p1.c: 166:     LAST_BUTTON_PRESSED = BUTTON4;
   356  0008AC  0E04               	movlw	4
   357  0008AE  6E0A               	movwf	_LAST_BUTTON_PRESSED^0,c
   358                           
   359                           ;inc/ece376_hw9_p1.c: 167:    } else if(PORTBbits.RB5) {
   360  0008B0  EFC3  F004         	goto	l1524
   361  0008B4                     l222:
   362  0008B4  AA81               	btfss	129,5,c	;volatile
   363  0008B6  EF5F  F004         	goto	u461
   364  0008BA  EF61  F004         	goto	u460
   365  0008BE                     u461:
   366  0008BE  EF65  F004         	goto	l224
   367  0008C2                     u460:
   368  0008C2                     
   369                           ;inc/ece376_hw9_p1.c: 168:     LAST_BUTTON_PRESSED = BUTTON5;
   370  0008C2  0E05               	movlw	5
   371  0008C4  6E0A               	movwf	_LAST_BUTTON_PRESSED^0,c
   372                           
   373                           ;inc/ece376_hw9_p1.c: 169:    } else if(PORTBbits.RB6) {
   374  0008C6  EFC3  F004         	goto	l1524
   375  0008CA                     l224:
   376  0008CA  AC81               	btfss	129,6,c	;volatile
   377  0008CC  EF6A  F004         	goto	u471
   378  0008D0  EF6C  F004         	goto	u470
   379  0008D4                     u471:
   380  0008D4  EF70  F004         	goto	l226
   381  0008D8                     u470:
   382  0008D8                     
   383                           ;inc/ece376_hw9_p1.c: 170:     LAST_BUTTON_PRESSED = BUTTON6;
   384  0008D8  0E06               	movlw	6
   385  0008DA  6E0A               	movwf	_LAST_BUTTON_PRESSED^0,c
   386                           
   387                           ;inc/ece376_hw9_p1.c: 171:    } else if(PORTBbits.RB7) {
   388  0008DC  EFC3  F004         	goto	l1524
   389  0008E0                     l226:
   390  0008E0  AE81               	btfss	129,7,c	;volatile
   391  0008E2  EF75  F004         	goto	u481
   392  0008E6  EF77  F004         	goto	u480
   393  0008EA                     u481:
   394  0008EA  EF7B  F004         	goto	l225
   395  0008EE                     u480:
   396  0008EE                     
   397                           ;inc/ece376_hw9_p1.c: 172:     LAST_BUTTON_PRESSED = BUTTON7;
   398  0008EE  0E07               	movlw	7
   399  0008F0  6E0A               	movwf	_LAST_BUTTON_PRESSED^0,c
   400                           
   401                           ;inc/ece376_hw9_p1.c: 173:    } else {
   402  0008F2  EFC3  F004         	goto	l1524
   403  0008F6                     l225:
   404  0008F6  EFC3  F004         	goto	l1524
   405  0008FA                     l1490:
   406                           
   407                           ;inc/ece376_hw9_p1.c: 186:      ccp_compare_val_final = 50746u;
   408  0008FA  0EC6               	movlw	198
   409  0008FC  6E09               	movwf	(_ccp_compare_val_final+1)^0,c
   410  0008FE  0E3A               	movlw	58
   411  000900  6E08               	movwf	_ccp_compare_val_final^0,c
   412                           
   413                           ;inc/ece376_hw9_p1.c: 187:      compare_count = 2u;
   414  000902  0E02               	movlw	2
   415  000904  6E02               	movwf	_compare_count^0,c	;volatile
   416  000906                     l1492:
   417                           
   418                           ;inc/ece376_hw9_p1.c: 188:      (CCPR1 = 0xFFFF);
   419  000906  68BE               	setf	190,c	;volatile
   420  000908  68BF               	setf	191,c	;volatile
   421                           
   422                           ;inc/ece376_hw9_p1.c: 189:      break;
   423  00090A  EF19  F004         	goto	l1468
   424  00090E                     l1494:
   425                           
   426                           ;inc/ece376_hw9_p1.c: 195:      ccp_compare_val_final = 25373u;
   427  00090E  0E63               	movlw	99
   428  000910  6E09               	movwf	(_ccp_compare_val_final+1)^0,c
   429  000912  0E1D               	movlw	29
   430  000914  6E08               	movwf	_ccp_compare_val_final^0,c
   431                           
   432                           ;inc/ece376_hw9_p1.c: 196:      compare_count = 1u;
   433  000916  0E01               	movlw	1
   434  000918  6E02               	movwf	_compare_count^0,c	;volatile
   435  00091A  EF83  F004         	goto	l1492
   436  00091E                     l1498:
   437                           
   438                           ;inc/ece376_hw9_p1.c: 202:      ccp_compare_val_final = 45454u;
   439  00091E  0EB1               	movlw	177
   440  000920  6E09               	movwf	(_ccp_compare_val_final+1)^0,c
   441  000922  0E8E               	movlw	142
   442  000924  6E08               	movwf	_ccp_compare_val_final^0,c
   443                           
   444                           ;inc/ece376_hw9_p1.c: 203:      compare_count = 0;
   445  000926  0E00               	movlw	0
   446  000928  6E02               	movwf	_compare_count^0,c	;volatile
   447  00092A                     l1500:
   448                           
   449                           ;inc/ece376_hw9_p1.c: 204:      (CCPR1 = ccp_compare_val_final);
   450  00092A  C008  FFBE         	movff	_ccp_compare_val_final,4030	;volatile
   451  00092E  C009  FFBF         	movff	_ccp_compare_val_final+1,4031	;volatile
   452                           
   453                           ;inc/ece376_hw9_p1.c: 205:      break;
   454  000932  EF19  F004         	goto	l1468
   455  000936                     l1502:
   456                           
   457                           ;inc/ece376_hw9_p1.c: 208:      ccp_compare_val_final = 22727u;
   458  000936  0E58               	movlw	88
   459  000938  6E09               	movwf	(_ccp_compare_val_final+1)^0,c
   460  00093A  0EC7               	movlw	199
   461  00093C  6E08               	movwf	_ccp_compare_val_final^0,c
   462                           
   463                           ;inc/ece376_hw9_p1.c: 209:      compare_count = 0u;
   464  00093E  0E00               	movlw	0
   465  000940  6E02               	movwf	_compare_count^0,c	;volatile
   466  000942  EF95  F004         	goto	l1500
   467  000946                     l1506:
   468                           
   469                           ;inc/ece376_hw9_p1.c: 214:      ccp_compare_val_final = 11363u;
   470  000946  0E2C               	movlw	44
   471  000948  6E09               	movwf	(_ccp_compare_val_final+1)^0,c
   472  00094A  0E63               	movlw	99
   473  00094C  6E08               	movwf	_ccp_compare_val_final^0,c
   474                           
   475                           ;inc/ece376_hw9_p1.c: 215:      compare_count = 0u;
   476  00094E  0E00               	movlw	0
   477  000950  6E02               	movwf	_compare_count^0,c	;volatile
   478  000952  EF95  F004         	goto	l1500
   479  000956                     l1510:
   480                           
   481                           ;inc/ece376_hw9_p1.c: 220:      ccp_compare_val_final = 5681u;
   482  000956  0E16               	movlw	22
   483  000958  6E09               	movwf	(_ccp_compare_val_final+1)^0,c
   484  00095A  0E31               	movlw	49
   485  00095C  6E08               	movwf	_ccp_compare_val_final^0,c
   486                           
   487                           ;inc/ece376_hw9_p1.c: 221:      compare_count = 0u;
   488  00095E  0E00               	movlw	0
   489  000960  6E02               	movwf	_compare_count^0,c	;volatile
   490  000962  EF95  F004         	goto	l1500
   491  000966                     l1514:
   492                           
   493                           ;inc/ece376_hw9_p1.c: 226:      ccp_compare_val_final = 2840u;
   494  000966  0E0B               	movlw	11
   495  000968  6E09               	movwf	(_ccp_compare_val_final+1)^0,c
   496  00096A  0E18               	movlw	24
   497  00096C  6E08               	movwf	_ccp_compare_val_final^0,c
   498                           
   499                           ;inc/ece376_hw9_p1.c: 227:      compare_count = 0u;
   500  00096E  0E00               	movlw	0
   501  000970  6E02               	movwf	_compare_count^0,c	;volatile
   502  000972  EF95  F004         	goto	l1500
   503  000976                     l1518:
   504                           
   505                           ;inc/ece376_hw9_p1.c: 232:      ccp_compare_val_final = 1420u;
   506  000976  0E05               	movlw	5
   507  000978  6E09               	movwf	(_ccp_compare_val_final+1)^0,c
   508  00097A  0E8C               	movlw	140
   509  00097C  6E08               	movwf	_ccp_compare_val_final^0,c
   510                           
   511                           ;inc/ece376_hw9_p1.c: 233:      compare_count = 0u;
   512  00097E  0E00               	movlw	0
   513  000980  6E02               	movwf	_compare_count^0,c	;volatile
   514  000982  EF95  F004         	goto	l1500
   515  000986                     l1524:
   516  000986  500A               	movf	_LAST_BUTTON_PRESSED^0,w,c
   517  000988  6E13               	movwf	??_main^0,c
   518  00098A  6A14               	clrf	(??_main+1)^0,c
   519                           
   520                           ; Switch on 2 bytes has been partitioned into a top level switch of size 1, and 1 sub-sw
      +                          itches
   521                           ; Switch size 1, requested type "simple"
   522                           ; Number of cases is 1, Range of values is 0 to 0
   523                           ; switch strategies available:
   524                           ; Name         Instructions Cycles
   525                           ; simple_byte            4     3 (average)
   526                           ;	Chosen strategy is simple_byte
   527  00098C  5014               	movf	(??_main+1)^0,w,c
   528  00098E  0A00               	xorlw	0	; case 0
   529  000990  B4D8               	btfsc	status,2,c
   530  000992  EFCD  F004         	goto	l1536
   531  000996  EF19  F004         	goto	l1468
   532  00099A                     l1536:
   533                           
   534                           ; Switch size 1, requested type "simple"
   535                           ; Number of cases is 8, Range of values is 0 to 7
   536                           ; switch strategies available:
   537                           ; Name         Instructions Cycles
   538                           ; simple_byte           25    13 (average)
   539                           ;	Chosen strategy is simple_byte
   540  00099A  5013               	movf	??_main^0,w,c
   541  00099C  0A00               	xorlw	0	; case 0
   542  00099E  B4D8               	btfsc	status,2,c
   543  0009A0  EF7D  F004         	goto	l1490
   544  0009A4  0A01               	xorlw	1	; case 1
   545  0009A6  B4D8               	btfsc	status,2,c
   546  0009A8  EF87  F004         	goto	l1494
   547  0009AC  0A03               	xorlw	3	; case 2
   548  0009AE  B4D8               	btfsc	status,2,c
   549  0009B0  EF8F  F004         	goto	l1498
   550  0009B4  0A01               	xorlw	1	; case 3
   551  0009B6  B4D8               	btfsc	status,2,c
   552  0009B8  EF9B  F004         	goto	l1502
   553  0009BC  0A07               	xorlw	7	; case 4
   554  0009BE  B4D8               	btfsc	status,2,c
   555  0009C0  EFA3  F004         	goto	l1506
   556  0009C4  0A01               	xorlw	1	; case 5
   557  0009C6  B4D8               	btfsc	status,2,c
   558  0009C8  EFAB  F004         	goto	l1510
   559  0009CC  0A03               	xorlw	3	; case 6
   560  0009CE  B4D8               	btfsc	status,2,c
   561  0009D0  EFB3  F004         	goto	l1514
   562  0009D4  0A01               	xorlw	1	; case 7
   563  0009D6  B4D8               	btfsc	status,2,c
   564  0009D8  EFBB  F004         	goto	l1518
   565  0009DC  EF19  F004         	goto	l1468
   566  0009E0  EF07  F004         	goto	start
   567  0009E4                     __end_of_main:
   568                           	callstack 0
   569                           
   570 ;; *************** function _Timer1_Init_Default *****************
   571 ;; Defined at:
   572 ;;		line 31 in file "src/timer.c"
   573 ;; Parameters:    Size  Location     Type
   574 ;;  period_val      2    2[COMRAM] unsigned short 
   575 ;; Auto vars:     Size  Location     Type
   576 ;;		None
   577 ;; Return value:  Size  Location     Type
   578 ;;                  1    wreg      void 
   579 ;; Registers used:
   580 ;;		wreg, status,2, cstack
   581 ;; Tracked objects:
   582 ;;		On entry : 0/0
   583 ;;		On exit  : 0/0
   584 ;;		Unchanged: 0/0
   585 ;; Data sizes:     COMRAM   BANK0   BANK1   BANK2   BANK3   BANK4   BANK5   BANK6   BANK7   BANK8   BANK9  BANK10  BANK1
      +1  BANK12  BANK13  BANK14  BANK15
   586 ;;      Params:         2       0       0       0       0       0       0       0       0       0       0       0       
      +0       0       0       0       0
   587 ;;      Locals:         0       0       0       0       0       0       0       0       0       0       0       0       
      +0       0       0       0       0
   588 ;;      Temps:          0       0       0       0       0       0       0       0       0       0       0       0       
      +0       0       0       0       0
   589 ;;      Totals:         2       0       0       0       0       0       0       0       0       0       0       0       
      +0       0       0       0       0
   590 ;;Total ram usage:        2 bytes
   591 ;; Hardware stack levels used:    1
   592 ;; Hardware stack levels required when called:    2
   593 ;; This function calls:
   594 ;;		_CCP1_Init_Default
   595 ;; This function is called by:
   596 ;;		_main
   597 ;; This function uses a non-reentrant model
   598 ;;
   599                           
   600                           	psect	text1
   601  000A9A                     __ptext1:
   602                           	callstack 0
   603  000A9A                     _Timer1_Init_Default:
   604                           	callstack 28
   605  000A9A                     
   606                           ;src/timer.c: 34:     T1CON = 0x80;
   607  000A9A  0E80               	movlw	128
   608  000A9C  6ECD               	movwf	205,c	;volatile
   609                           
   610                           ;src/timer.c: 35:     (T3CON = 0x00);
   611  000A9E  0E00               	movlw	0
   612  000AA0  6EB1               	movwf	177,c	;volatile
   613  000AA2                     
   614                           ;src/timer.c: 42:     CCP1_Init_Default(period_val);
   615  000AA2  C011  F00F         	movff	Timer1_Init_Default@period_val,CCP1_Init_Default@comp_val
   616  000AA6  C012  F010         	movff	Timer1_Init_Default@period_val+1,CCP1_Init_Default@comp_val+1
   617  000AAA  EC58  F005         	call	_CCP1_Init_Default	;wreg free
   618  000AAE  0012               	return		;funcret
   619  000AB0                     __end_of_Timer1_Init_Default:
   620                           	callstack 0
   621                           
   622 ;; *************** function _CCP1_Init_Default *****************
   623 ;; Defined at:
   624 ;;		line 41 in file "src/ccp.c"
   625 ;; Parameters:    Size  Location     Type
   626 ;;  comp_val        2    0[COMRAM] unsigned short 
   627 ;; Auto vars:     Size  Location     Type
   628 ;;		None
   629 ;; Return value:  Size  Location     Type
   630 ;;                  1    wreg      void 
   631 ;; Registers used:
   632 ;;		wreg, status,2
   633 ;; Tracked objects:
   634 ;;		On entry : 0/0
   635 ;;		On exit  : 0/0
   636 ;;		Unchanged: 0/0
   637 ;; Data sizes:     COMRAM   BANK0   BANK1   BANK2   BANK3   BANK4   BANK5   BANK6   BANK7   BANK8   BANK9  BANK10  BANK1
      +1  BANK12  BANK13  BANK14  BANK15
   638 ;;      Params:         2       0       0       0       0       0       0       0       0       0       0       0       
      +0       0       0       0       0
   639 ;;      Locals:         0       0       0       0       0       0       0       0       0       0       0       0       
      +0       0       0       0       0
   640 ;;      Temps:          0       0       0       0       0       0       0       0       0       0       0       0       
      +0       0       0       0       0
   641 ;;      Totals:         2       0       0       0       0       0       0       0       0       0       0       0       
      +0       0       0       0       0
   642 ;;Total ram usage:        2 bytes
   643 ;; Hardware stack levels used:    1
   644 ;; Hardware stack levels required when called:    1
   645 ;; This function calls:
   646 ;;		Nothing
   647 ;; This function is called by:
   648 ;;		_Timer1_Init_Default
   649 ;; This function uses a non-reentrant model
   650 ;;
   651                           
   652                           	psect	text2
   653  000AB0                     __ptext2:
   654                           	callstack 0
   655  000AB0                     _CCP1_Init_Default:
   656                           	callstack 28
   657  000AB0                     
   658                           ;src/ccp.c: 42:     (CCP1CON = 0x0B);
   659  000AB0  0E0B               	movlw	11
   660  000AB2  6EBD               	movwf	189,c	;volatile
   661  000AB4                     
   662                           ;src/ccp.c: 43:     (CCPR1 = comp_val);
   663  000AB4  C00F  FFBE         	movff	CCP1_Init_Default@comp_val,4030	;volatile
   664  000AB8  C010  FFBF         	movff	CCP1_Init_Default@comp_val+1,4031	;volatile
   665  000ABC                     
   666                           ;src/ccp.c: 44:     (PIE1bits.CCP1IE = 1u);
   667  000ABC  849D               	bsf	157,2,c	;volatile
   668  000ABE  0012               	return		;funcret
   669  000AC0                     __end_of_CCP1_Init_Default:
   670                           	callstack 0
   671                           
   672 ;; *************** function _Timer1_Enable *****************
   673 ;; Defined at:
   674 ;;		line 54 in file "src/timer.c"
   675 ;; Parameters:    Size  Location     Type
   676 ;;		None
   677 ;; Auto vars:     Size  Location     Type
   678 ;;		None
   679 ;; Return value:  Size  Location     Type
   680 ;;                  1    wreg      void 
   681 ;; Registers used:
   682 ;;		status,2, status,0
   683 ;; Tracked objects:
   684 ;;		On entry : 0/0
   685 ;;		On exit  : 0/0
   686 ;;		Unchanged: 0/0
   687 ;; Data sizes:     COMRAM   BANK0   BANK1   BANK2   BANK3   BANK4   BANK5   BANK6   BANK7   BANK8   BANK9  BANK10  BANK1
      +1  BANK12  BANK13  BANK14  BANK15
   688 ;;      Params:         0       0       0       0       0       0       0       0       0       0       0       0       
      +0       0       0       0       0
   689 ;;      Locals:         0       0       0       0       0       0       0       0       0       0       0       0       
      +0       0       0       0       0
   690 ;;      Temps:          0       0       0       0       0       0       0       0       0       0       0       0       
      +0       0       0       0       0
   691 ;;      Totals:         0       0       0       0       0       0       0       0       0       0       0       0       
      +0       0       0       0       0
   692 ;;Total ram usage:        0 bytes
   693 ;; Hardware stack levels used:    1
   694 ;; Hardware stack levels required when called:    1
   695 ;; This function calls:
   696 ;;		Nothing
   697 ;; This function is called by:
   698 ;;		_main
   699 ;; This function uses a non-reentrant model
   700 ;;
   701                           
   702                           	psect	text3
   703  000AC8                     __ptext3:
   704                           	callstack 0
   705  000AC8                     _Timer1_Enable:
   706                           	callstack 29
   707  000AC8                     
   708                           ;src/timer.c: 55:     T1CON |= 0x01;
   709  000AC8  80CD               	bsf	205,0,c	;volatile
   710  000ACA  0012               	return		;funcret
   711  000ACC                     __end_of_Timer1_Enable:
   712                           	callstack 0
   713                           
   714 ;; *************** function _isr *****************
   715 ;; Defined at:
   716 ;;		line 93 in file "inc/ece376_hw9_p1.c"
   717 ;; Parameters:    Size  Location     Type
   718 ;;		None
   719 ;; Auto vars:     Size  Location     Type
   720 ;;		None
   721 ;; Return value:  Size  Location     Type
   722 ;;                  1    wreg      void 
   723 ;; Registers used:
   724 ;;		wreg, status,2, status,0
   725 ;; Tracked objects:
   726 ;;		On entry : 0/0
   727 ;;		On exit  : 0/0
   728 ;;		Unchanged: 0/0
   729 ;; Data sizes:     COMRAM   BANK0   BANK1   BANK2   BANK3   BANK4   BANK5   BANK6   BANK7   BANK8   BANK9  BANK10  BANK1
      +1  BANK12  BANK13  BANK14  BANK15
   730 ;;      Params:         0       0       0       0       0       0       0       0       0       0       0       0       
      +0       0       0       0       0
   731 ;;      Locals:         0       0       0       0       0       0       0       0       0       0       0       0       
      +0       0       0       0       0
   732 ;;      Temps:          0       0       0       0       0       0       0       0       0       0       0       0       
      +0       0       0       0       0
   733 ;;      Totals:         0       0       0       0       0       0       0       0       0       0       0       0       
      +0       0       0       0       0
   734 ;;Total ram usage:        0 bytes
   735 ;; Hardware stack levels used:    1
   736 ;; This function calls:
   737 ;;		Nothing
   738 ;; This function is called by:
   739 ;;		Interrupt level 2
   740 ;; This function uses a non-reentrant model
   741 ;;
   742                           
   743                           	psect	intcode
   744  000808                     __pintcode:
   745                           	callstack 0
   746  000808                     _isr:
   747                           	callstack 28
   748                           
   749                           ;incstack = 0
   750  000808  8215               	bsf	int$flags,1,c	;set compiler interrupt flag (level 2)
   751  00080A  EDF2  F004         	call	int_func,f	;refresh shadow registers
   752                           
   753                           	psect	intcode_body
   754  0009E4                     __pintcode_body:
   755                           	callstack 28
   756  0009E4                     int_func:
   757                           	callstack 28
   758  0009E4  0006               	pop		; remove dummy address from shadow register refresh
   759  0009E6                     
   760                           ;inc/ece376_hw9_p1.c: 99:     if(PIR1bits.CCP1IF && PIE1bits.CCP1IE){
   761  0009E6  A49E               	btfss	158,2,c	;volatile
   762  0009E8  EFF8  F004         	goto	i2u25_41
   763  0009EC  EFFA  F004         	goto	i2u25_40
   764  0009F0                     i2u25_41:
   765  0009F0  EF2E  F005         	goto	i2l207
   766  0009F4                     i2u25_40:
   767  0009F4  A49D               	btfss	157,2,c	;volatile
   768  0009F6  EFFF  F004         	goto	i2u26_41
   769  0009FA  EF01  F005         	goto	i2u26_40
   770  0009FE                     i2u26_41:
   771  0009FE  EF2E  F005         	goto	i2l207
   772  000A02                     i2u26_40:
   773  000A02                     
   774                           ;inc/ece376_hw9_p1.c: 101:         if(compare_count == 0) {
   775  000A02  5002               	movf	_compare_count^0,w,c	;volatile
   776  000A04  A4D8               	btfss	status,2,c
   777  000A06  EF07  F005         	goto	i2u27_41
   778  000A0A  EF09  F005         	goto	i2u27_40
   779  000A0E                     i2u27_41:
   780  000A0E  EF20  F005         	goto	i2l1348
   781  000A12                     i2u27_40:
   782  000A12                     
   783                           ;inc/ece376_hw9_p1.c: 102:    reset_comp_count_flag = 0x01;
   784  000A12  0E01               	movlw	1
   785  000A14  6E01               	movwf	_reset_comp_count_flag^0,c	;volatile
   786                           
   787                           ;inc/ece376_hw9_p1.c: 103:    if((LAST_BUTTON_PRESSED == BUTTON0) || (LAST_BUTTON_PRESSE
      +                          D == BUTTON1)){
   788  000A16  500A               	movf	_LAST_BUTTON_PRESSED^0,w,c
   789  000A18  B4D8               	btfsc	status,2,c
   790  000A1A  EF11  F005         	goto	i2u28_41
   791  000A1E  EF13  F005         	goto	i2u28_40
   792  000A22                     i2u28_41:
   793  000A22  EF1B  F005         	goto	i2l204
   794  000A26                     i2u28_40:
   795  000A26  040A               	decf	_LAST_BUTTON_PRESSED^0,w,c
   796  000A28  A4D8               	btfss	status,2,c
   797  000A2A  EF19  F005         	goto	i2u29_41
   798  000A2E  EF1B  F005         	goto	i2u29_40
   799  000A32                     i2u29_41:
   800  000A32  EF1D  F005         	goto	i2l1346
   801  000A36                     i2u29_40:
   802  000A36                     i2l204:
   803                           
   804                           ;inc/ece376_hw9_p1.c: 104:                 (CCPR1 = 0xFFFF);
   805  000A36  68BE               	setf	190,c	;volatile
   806  000A38  68BF               	setf	191,c	;volatile
   807  000A3A                     i2l1346:
   808                           
   809                           ;inc/ece376_hw9_p1.c: 107:    (LATCbits.LATC0 ^= 0x1);
   810  000A3A  708B               	btg	139,0,c	;volatile
   811                           
   812                           ;inc/ece376_hw9_p1.c: 109:   } else {
   813  000A3C  EF2D  F005         	goto	i2l205
   814  000A40                     i2l1348:
   815                           
   816                           ;inc/ece376_hw9_p1.c: 110:    compare_count--;
   817  000A40  0602               	decf	_compare_count^0,f,c	;volatile
   818  000A42                     
   819                           ;inc/ece376_hw9_p1.c: 111:    if(compare_count == 0) {
   820  000A42  5002               	movf	_compare_count^0,w,c	;volatile
   821  000A44  A4D8               	btfss	status,2,c
   822  000A46  EF27  F005         	goto	i2u30_41
   823  000A4A  EF29  F005         	goto	i2u30_40
   824  000A4E                     i2u30_41:
   825  000A4E  EF2D  F005         	goto	i2l205
   826  000A52                     i2u30_40:
   827  000A52                     
   828                           ;inc/ece376_hw9_p1.c: 112:     (CCPR1 = ccp_compare_val_final);
   829  000A52  C008  FFBE         	movff	_ccp_compare_val_final,4030	;volatile
   830  000A56  C009  FFBF         	movff	_ccp_compare_val_final+1,4031	;volatile
   831  000A5A                     i2l205:
   832                           
   833                           ;inc/ece376_hw9_p1.c: 117:   (PIR1bits.CCP1IF = 0u);
   834  000A5A  949E               	bcf	158,2,c	;volatile
   835  000A5C                     i2l207:
   836  000A5C  9215               	bcf	int$flags,1,c	;clear compiler interrupt flag (level 2)
   837  000A5E  0011               	retfie		f
   838  000A60                     __end_of_isr:
   839                           	callstack 0
   840  0000                     
   841                           	psect	rparam
   842  0000                     
   843                           	psect	temp
   844  000015                     btemp:
   845                           	callstack 0
   846  000015                     	ds	1
   847  0000                     int$flags	set	btemp
   848  0000                     wtemp8	set	btemp+1
   849  0000                     ttemp5	set	btemp+1
   850  0000                     ttemp6	set	btemp+4
   851  0000                     ttemp7	set	btemp+8
   852                           
   853                           	psect	idloc
   854                           
   855                           ;Config register IDLOC0 @ 0x200000
   856                           ;	unspecified, using default values
   857  200000                     	org	2097152
   858  200000  FF                 	db	255
   859                           
   860                           ;Config register IDLOC1 @ 0x200001
   861                           ;	unspecified, using default values
   862  200001                     	org	2097153
   863  200001  FF                 	db	255
   864                           
   865                           ;Config register IDLOC2 @ 0x200002
   866                           ;	unspecified, using default values
   867  200002                     	org	2097154
   868  200002  FF                 	db	255
   869                           
   870                           ;Config register IDLOC3 @ 0x200003
   871                           ;	unspecified, using default values
   872  200003                     	org	2097155
   873  200003  FF                 	db	255
   874                           
   875                           ;Config register IDLOC4 @ 0x200004
   876                           ;	unspecified, using default values
   877  200004                     	org	2097156
   878  200004  FF                 	db	255
   879                           
   880                           ;Config register IDLOC5 @ 0x200005
   881                           ;	unspecified, using default values
   882  200005                     	org	2097157
   883  200005  FF                 	db	255
   884                           
   885                           ;Config register IDLOC6 @ 0x200006
   886                           ;	unspecified, using default values
   887  200006                     	org	2097158
   888  200006  FF                 	db	255
   889                           
   890                           ;Config register IDLOC7 @ 0x200007
   891                           ;	unspecified, using default values
   892  200007                     	org	2097159
   893  200007  FF                 	db	255
   894                           
   895                           	psect	config
   896                           
   897                           ; Padding undefined space
   898  300000                     	org	3145728
   899  300000  FF                 	db	255
   900                           
   901                           ;Config register CONFIG1H @ 0x300001
   902                           ;	Oscillator Selection bits
   903                           ;	OSC = HSPLL, HS oscillator, PLL enabled (Clock Frequency = 4 x FOSC1)
   904                           ;	Fail-Safe Clock Monitor Enable bit
   905                           ;	FCMEN = OFF, Fail-Safe Clock Monitor disabled
   906                           ;	Internal/External Oscillator Switchover bit
   907                           ;	IESO = OFF, Oscillator Switchover mode disabled
   908  300001                     	org	3145729
   909  300001  06                 	db	6
   910                           
   911                           ;Config register CONFIG2L @ 0x300002
   912                           ;	Power-up Timer Enable bit
   913                           ;	PWRT = OFF, PWRT disabled
   914                           ;	Brown-out Reset Enable bits
   915                           ;	BOREN = SBORDIS, Brown-out Reset enabled in hardware only (SBOREN is disabled)
   916                           ;	Brown Out Reset Voltage bits
   917                           ;	BORV = 3, Minimum setting
   918  300002                     	org	3145730
   919  300002  1F                 	db	31
   920                           
   921                           ;Config register CONFIG2H @ 0x300003
   922                           ;	Watchdog Timer Enable bit
   923                           ;	WDT = OFF, WDT disabled (control is placed on the SWDTEN bit)
   924                           ;	Watchdog Timer Postscale Select bits
   925                           ;	WDTPS = 32768, 1:32768
   926  300003                     	org	3145731
   927  300003  1E                 	db	30
   928                           
   929                           ; Padding undefined space
   930  300004                     	org	3145732
   931  300004  FF                 	db	255
   932                           
   933                           ;Config register CONFIG3H @ 0x300005
   934                           ;	CCP2 MUX bit
   935                           ;	CCP2MX = PORTC, CCP2 input/output is multiplexed with RC1
   936                           ;	PORTB A/D Enable bit
   937                           ;	PBADEN = OFF, PORTB<4:0> pins are configured as digital I/O on Reset
   938                           ;	Low-Power Timer1 Oscillator Enable bit
   939                           ;	LPT1OSC = OFF, Timer1 configured for higher power operation
   940                           ;	MCLR Pin Enable bit
   941                           ;	MCLRE = ON, MCLR pin enabled; RE3 input pin disabled
   942  300005                     	org	3145733
   943  300005  81                 	db	129
   944                           
   945                           ;Config register CONFIG4L @ 0x300006
   946                           ;	Stack Full/Underflow Reset Enable bit
   947                           ;	STVREN = ON, Stack full/underflow will cause Reset
   948                           ;	Single-Supply ICSP Enable bit
   949                           ;	LVP = OFF, Single-Supply ICSP disabled
   950                           ;	Extended Instruction Set Enable bit
   951                           ;	XINST = OFF, Instruction set extension and Indexed Addressing mode disabled (Legacy mo
      +                          de)
   952                           ;	Background Debugger Enable bit
   953                           ;	DEBUG = 0x1, unprogrammed default
   954  300006                     	org	3145734
   955  300006  81                 	db	129
   956                           
   957                           ; Padding undefined space
   958  300007                     	org	3145735
   959  300007  FF                 	db	255
   960                           
   961                           ;Config register CONFIG5L @ 0x300008
   962                           ;	Code Protection bit
   963                           ;	CP0 = OFF, Block 0 (000800-003FFFh) not code-protected
   964                           ;	Code Protection bit
   965                           ;	CP1 = OFF, Block 1 (004000-007FFFh) not code-protected
   966                           ;	Code Protection bit
   967                           ;	CP2 = OFF, Block 2 (008000-00BFFFh) not code-protected
   968                           ;	Code Protection bit
   969                           ;	CP3 = OFF, Block 3 (00C000-00FFFFh) not code-protected
   970  300008                     	org	3145736
   971  300008  0F                 	db	15
   972                           
   973                           ;Config register CONFIG5H @ 0x300009
   974                           ;	Boot Block Code Protection bit
   975                           ;	CPB = OFF, Boot block (000000-0007FFh) not code-protected
   976                           ;	Data EEPROM Code Protection bit
   977                           ;	CPD = OFF, Data EEPROM not code-protected
   978  300009                     	org	3145737
   979  300009  C0                 	db	192
   980                           
   981                           ;Config register CONFIG6L @ 0x30000A
   982                           ;	Write Protection bit
   983                           ;	WRT0 = OFF, Block 0 (000800-003FFFh) not write-protected
   984                           ;	Write Protection bit
   985                           ;	WRT1 = OFF, Block 1 (004000-007FFFh) not write-protected
   986                           ;	Write Protection bit
   987                           ;	WRT2 = OFF, Block 2 (008000-00BFFFh) not write-protected
   988                           ;	Write Protection bit
   989                           ;	WRT3 = OFF, Block 3 (00C000-00FFFFh) not write-protected
   990  30000A                     	org	3145738
   991  30000A  0F                 	db	15
   992                           
   993                           ;Config register CONFIG6H @ 0x30000B
   994                           ;	Configuration Register Write Protection bit
   995                           ;	WRTC = OFF, Configuration registers (300000-3000FFh) not write-protected
   996                           ;	Boot Block Write Protection bit
   997                           ;	WRTB = OFF, Boot Block (000000-0007FFh) not write-protected
   998                           ;	Data EEPROM Write Protection bit
   999                           ;	WRTD = OFF, Data EEPROM not write-protected
  1000  30000B                     	org	3145739
  1001  30000B  E0                 	db	224
  1002                           
  1003                           ;Config register CONFIG7L @ 0x30000C
  1004                           ;	Table Read Protection bit
  1005                           ;	EBTR0 = OFF, Block 0 (000800-003FFFh) not protected from table reads executed in other
      +                           blocks
  1006                           ;	Table Read Protection bit
  1007                           ;	EBTR1 = OFF, Block 1 (004000-007FFFh) not protected from table reads executed in other
      +                           blocks
  1008                           ;	Table Read Protection bit
  1009                           ;	EBTR2 = OFF, Block 2 (008000-00BFFFh) not protected from table reads executed in other
      +                           blocks
  1010                           ;	Table Read Protection bit
  1011                           ;	EBTR3 = OFF, Block 3 (00C000-00FFFFh) not protected from table reads executed in other
      +                           blocks
  1012  30000C                     	org	3145740
  1013  30000C  0F                 	db	15
  1014                           
  1015                           ;Config register CONFIG7H @ 0x30000D
  1016                           ;	Boot Block Table Read Protection bit
  1017                           ;	EBTRB = OFF, Boot Block (000000-0007FFh) not protected from table reads executed in ot
      +                          her blocks
  1018  30000D                     	org	3145741
  1019  30000D  40                 	db	64
  1020                           tosu	equ	0xFFF
  1021                           tosh	equ	0xFFE
  1022                           tosl	equ	0xFFD
  1023                           stkptr	equ	0xFFC
  1024                           pclatu	equ	0xFFB
  1025                           pclath	equ	0xFFA
  1026                           pcl	equ	0xFF9
  1027                           tblptru	equ	0xFF8
  1028                           tblptrh	equ	0xFF7
  1029                           tblptrl	equ	0xFF6
  1030                           tablat	equ	0xFF5
  1031                           prodh	equ	0xFF4
  1032                           prodl	equ	0xFF3
  1033                           indf0	equ	0xFEF
  1034                           postinc0	equ	0xFEE
  1035                           postdec0	equ	0xFED
  1036                           preinc0	equ	0xFEC
  1037                           plusw0	equ	0xFEB
  1038                           fsr0h	equ	0xFEA
  1039                           fsr0l	equ	0xFE9
  1040                           wreg	equ	0xFE8
  1041                           indf1	equ	0xFE7
  1042                           postinc1	equ	0xFE6
  1043                           postdec1	equ	0xFE5
  1044                           preinc1	equ	0xFE4
  1045                           plusw1	equ	0xFE3
  1046                           fsr1h	equ	0xFE2
  1047                           fsr1l	equ	0xFE1
  1048                           bsr	equ	0xFE0
  1049                           indf2	equ	0xFDF
  1050                           postinc2	equ	0xFDE
  1051                           postdec2	equ	0xFDD
  1052                           preinc2	equ	0xFDC
  1053                           plusw2	equ	0xFDB
  1054                           fsr2h	equ	0xFDA
  1055                           fsr2l	equ	0xFD9
  1056                           status	equ	0xFD8

Data Sizes:
    Strings     0
    Constant    0
    Data        7
    BSS         7
    Persistent  0
    Stack       0

Auto Spaces:
    Space          Size  Autos    Used
    COMRAM          126      6      20
    BANK0           128      0       0
    BANK1           256      0       0
    BANK2           256      0       0
    BANK3           256      0       0
    BANK4           256      0       0
    BANK5           256      0       0
    BANK6           256      0       0
    BANK7           256      0       0
    BANK8           256      0       0
    BANK9           256      0       0
    BANK10          256      0       0
    BANK11          256      0       0
    BANK12          256      0       0
    BANK13          256      0       0
    BANK14          256      0       0
    BANK15          128      0       0

Pointer List with Targets:

    None.

Critical Paths under _main in COMRAM

    _main->_Timer1_Init_Default
    _Timer1_Init_Default->_CCP1_Init_Default

Critical Paths under _isr in COMRAM

    None.

Critical Paths under _main in BANK0

    None.

Critical Paths under _isr in BANK0

    None.

Critical Paths under _main in BANK1

    None.

Critical Paths under _isr in BANK1

    None.

Critical Paths under _main in BANK2

    None.

Critical Paths under _isr in BANK2

    None.

Critical Paths under _main in BANK3

    None.

Critical Paths under _isr in BANK3

    None.

Critical Paths under _main in BANK4

    None.

Critical Paths under _isr in BANK4

    None.

Critical Paths under _main in BANK5

    None.

Critical Paths under _isr in BANK5

    None.

Critical Paths under _main in BANK6

    None.

Critical Paths under _isr in BANK6

    None.

Critical Paths under _main in BANK7

    None.

Critical Paths under _isr in BANK7

    None.

Critical Paths under _main in BANK8

    None.

Critical Paths under _isr in BANK8

    None.

Critical Paths under _main in BANK9

    None.

Critical Paths under _isr in BANK9

    None.

Critical Paths under _main in BANK10

    None.

Critical Paths under _isr in BANK10

    None.

Critical Paths under _main in BANK11

    None.

Critical Paths under _isr in BANK11

    None.

Critical Paths under _main in BANK12

    None.

Critical Paths under _isr in BANK12

    None.

Critical Paths under _main in BANK13

    None.

Critical Paths under _isr in BANK13

    None.

Critical Paths under _main in BANK14

    None.

Critical Paths under _isr in BANK14

    None.

Critical Paths under _main in BANK15

    None.

Critical Paths under _isr in BANK15

    None.

Call Graph Tables:

 ---------------------------------------------------------------------------------
 (Depth) Function   	        Calls       Base Space   Used Autos Params    Refs
 ---------------------------------------------------------------------------------
 (0) _main                                                 2     2      0     196
                                              4 COMRAM     2     2      0
                      _Timer1_Enable
                _Timer1_Init_Default
 ---------------------------------------------------------------------------------
 (1) _Timer1_Init_Default                                  2     0      2     196
                                              2 COMRAM     2     0      2
                  _CCP1_Init_Default
 ---------------------------------------------------------------------------------
 (2) _CCP1_Init_Default                                    2     0      2      98
                                              0 COMRAM     2     0      2
 ---------------------------------------------------------------------------------
 (1) _Timer1_Enable                                        0     0      0       0
 ---------------------------------------------------------------------------------
 Estimated maximum stack depth 2
 ---------------------------------------------------------------------------------
 (Depth) Function   	        Calls       Base Space   Used Autos Params    Refs
 ---------------------------------------------------------------------------------
 (3) _isr                                                  0     0      0       0
 ---------------------------------------------------------------------------------
 Estimated maximum stack depth 3
 ---------------------------------------------------------------------------------

 Call Graph Graphs:

 _main (ROOT)
   _Timer1_Enable
   _Timer1_Init_Default
     _CCP1_Init_Default

 _isr (ROOT)

 Address spaces:
Name               Size   Autos  Total    Cost      Usage
BIGRAM             F7F      0       0      37        0.0%
EEDATA             400      0       0       0        0.0%
BITBANK14          100      0       0      32        0.0%
BANK14             100      0       0      33        0.0%
BITBANK13          100      0       0      30        0.0%
BANK13             100      0       0      31        0.0%
BITBANK12          100      0       0      28        0.0%
BANK12             100      0       0      29        0.0%
BITBANK11          100      0       0      26        0.0%
BANK11             100      0       0      27        0.0%
BITBANK10          100      0       0      24        0.0%
BANK10             100      0       0      25        0.0%
BITBANK9           100      0       0      22        0.0%
BANK9              100      0       0      23        0.0%
BITBANK8           100      0       0      20        0.0%
BANK8              100      0       0      21        0.0%
BITBANK7           100      0       0      18        0.0%
BANK7              100      0       0      19        0.0%
BITBANK6           100      0       0      16        0.0%
BANK6              100      0       0      17        0.0%
BITBANK5           100      0       0      14        0.0%
BANK5              100      0       0      15        0.0%
BITBANK4           100      0       0      12        0.0%
BANK4              100      0       0      13        0.0%
BITBANK3           100      0       0      10        0.0%
BANK3              100      0       0      11        0.0%
BITBANK2           100      0       0       8        0.0%
BANK2              100      0       0       9        0.0%
BITBANK1           100      0       0       6        0.0%
BANK1              100      0       0       7        0.0%
BITBANK15           80      0       0      35        0.0%
BANK15              80      0       0      36        0.0%
BITBANK0            80      0       0       4        0.0%
BANK0               80      0       0       5        0.0%
BITCOMRAM           7E      0       0       0        0.0%
COMRAM              7E      6      14       1       15.9%
BITSFR               0      0       0     200        0.0%
SFR                  0      0       0     200        0.0%
STACK                0      0       0       2        0.0%
NULL                 0      0       0       0        0.0%
ABS                  0      0      14      34        0.0%
DATA                 0      0      14       3        0.0%
CODE                 0      0       0       0        0.0%


Microchip Technology PIC18 Macro Assembler V2.31 build 20201012212115 
Symbol Table                                                                                   Sun Nov 07 01:43:33 2021

                           l15 0ABE            _LAST_BUTTON_PRESSED 000A                            l220 089E  
                          l222 08B4                            l214 085C                            l160 0ACA  
                          l224 08CA                            l216 0872                            l225 08F6  
                          l226 08E0                            l218 0888                            l157 0AAE  
                          u400 0846                            u401 0842                            u410 0854  
                          u411 0850                            u420 086A                            u421 0866  
                          u430 0880                            u431 087C                            u440 0896  
                          u441 0892                            u450 08AC                            u451 08A8  
                          u460 08C2                            u461 08BE                            u470 08D8  
                          u471 08D4                            u480 08EE                            u481 08EA  
                          _isr 0808                            wreg 000FE8             _current_entry_mode 000C  
                         l1014 0AC8                           l1500 092A                           l1510 0956  
                         l1502 0936                           l1440 0AB0                           l1442 0AB4  
                         l1514 0966                           l1506 0946                           l1450 0812  
                         l1444 0ABC                           l1524 0986                           l1460 0828  
                         l1452 0814                           l1446 0A9A                           l1518 0976  
                         l1470 0836                           l1462 082C                           l1454 0818  
                         l1448 0AA2                           l1536 099A                           l1480 0896  
                         l1472 0846                           l1464 082E                           l1456 081A  
                         l1490 08FA                           l1482 08AC                           l1474 0854  
                         l1466 0830                           l1458 081E                           l1492 0906  
                         l1484 08C2                           l1476 086A                           l1468 0832  
                         l1494 090E                           l1486 08D8                           l1478 0880  
                         l1488 08EE                           l1498 091E                           ?_isr 000F  
                         _main 0812                           fsr1l 000FE1                           btemp 0015  
                         start 080E                   ___param_bank 000000                          ??_isr 000F  
                        ?_main 000F                          _CCPR1 000FBE                          _CCPR2 000FBB  
                        _T1CON 000FCD                          _T3CON 000FB1                          i2l204 0A36  
                        i2l205 0A5A                          i2l207 0A5C                          _PORTB 000F81  
                        _PORTC 000F82                          _PORTD 000F83                          _TRISB 000F93  
                        _TRISC 000F94                          _TRISD 000F95                          tablat 000FF5  
        __end_of_Timer1_Enable 0ACC                          ttemp5 0016                          ttemp6 0019  
                        ttemp7 001D                          status 000FD8                          wtemp8 0016  
  __end_of_Timer1_Init_Default 0AB0                __initialization 0A60                   __end_of_main 09E4  
                       ??_main 0013                  __activetblptr 000002                         _ADCON1 000FC1  
                       i2l1340 0A02                         i2l1350 0A42                         i2l1342 0A12  
                       i2l1352 0A52                         i2l1344 0A26                         i2l1336 09E6  
                       i2l1346 0A3A                         i2l1338 09F4                         i2l1348 0A40  
                       clear_0 0A86                   __pdataCOMRAM 0008                         tblptrh 000FF7  
                       tblptrl 000FF6                         tblptru 000FF8                     __accesstop 0080  
      __end_of__initialization 0A8C                  ___rparam_used 000001                 __pcstackCOMRAM 000F  
Timer1_Init_Default@period_val 0011                  _init_complete 0005                        _CCP1CON 000FBD  
                      _CCP2CON 000FBA                        i2u30_40 0A52                        i2u30_41 0A4E  
                      i2u25_40 09F4                        i2u25_41 09F0                        i2u26_40 0A02  
                      i2u26_41 09FE                        i2u27_40 0A12                        i2u27_41 0A0E  
                      i2u28_40 0A26                        i2u28_41 0A22                        i2u29_40 0A36  
                      i2u29_41 0A32                        __Hparam 0000                        __Lparam 0000  
                      __pcinit 0A60                        __ramtop 1000                        __ptext0 0812  
                      __ptext1 0A9A                        __ptext2 0AB0                        __ptext3 0AC8  
                 __size_of_isr 0258                 __pintcode_body 09E4           end_of_initialization 0A8C  
                __Lmediumconst 0000                        int_func 09E4                     _shift_mode 0004  
                      postdec1 000FE5                        postinc0 000FEE   __size_of_Timer1_Init_Default 0016  
                    _PORTBbits 000F81                      _PORTDbits 000F83         __size_of_Timer1_Enable 0004  
              _address_counter 0003                   _CURRENT_DISP 0007               _current_func_set 000B  
            _CCP1_Init_Default 0AB0                  __pidataCOMRAM 0AC0             ?_CCP1_Init_Default 000F  
          start_initialization 0A60                    __end_of_isr 0A60            ??_CCP1_Init_Default 0011  
        _reset_comp_count_flag 0001                  _Timer1_Enable 0AC8      __end_of_CCP1_Init_Default 0AC0  
        _ccp_compare_val_final 0008                    __pbssCOMRAM 0001                 ?_Timer1_Enable 000F  
                    __pintcode 0808                      _disp_16x2 000D            _Timer1_Init_Default 0A9A  
                     _LATCbits 000F8B                       _PIE1bits 000F9D                       _PIE2bits 000FA0  
                _DISP_BIT_MODE 0006                       _PIR1bits 000F9E     __size_of_CCP1_Init_Default 0010  
         ?_Timer1_Init_Default 0011                ??_Timer1_Enable 000F                      copy_data0 0A74  
                     __Hrparam 0000      CCP1_Init_Default@comp_val 000F                       __Lrparam 0000  
        ??_Timer1_Init_Default 0013                  __size_of_main 01D2                       int$flags 0015  
                   _INTCONbits 000FF2                       intlevel2 0000                  _compare_count 0002  
            _current_disp_ctrl 000E  
